--- !tapi-tbd-v3
archs:                 [ armv7, armv7s, arm64, arm64e ]
platform:              ios
flags:                 [ flat_namespace ]
install-name:          /System/Library/PrivateFrameworks/ACICVPInterface.framework/ACICVPInterface
current-version:       1
compatibility-version: 1
objc-constraint:       retain_release
exports:
  - archs:                [ armv7, armv7s, arm64, arm64e ]
    symbols:              [ _ACICVPDeviceCopyProperty, _ACICVPDeviceCreate,
                            _ACICVPDeviceDestroy, _ACICVPDeviceGetTypeID,
                            _ACICVPDeviceRegisterCallback,
                            _ACICVPDeviceSetProperty, _ACICVPDeviceStartChannel,
                            _ACICVPDeviceStopChannel, _ACICVPDeviceStuff,
                            _ACICVPInterfaceVersionNumber,
                            _ACICVPInterfaceVersionString,
                            __ZN3aci3cvp10OBJCObject6retainEv,
                            __ZN3aci3cvp10OBJCObject7releaseEv,
                            __ZN3aci3cvp20CVPixelBufferFactory11getDataByIDEy,
                            __ZN3aci3cvp20CVPixelBufferFactory13classTypeInfoEv,
                            __ZN3aci3cvp20CVPixelBufferFactory14acquireBuffersEP19_ACIKSendBufferArgsjPjyy,
                            __ZN3aci3cvp20CVPixelBufferFactory8freeDataEPNS_4DataE,
                            __ZN3aci3cvp20CVPixelBufferFactory9allocDataEv,
                            __ZN3aci3cvp20CVPixelBufferFactoryC1EPKcjjjjjjN3isp9IspOutputE,
                            __ZN3aci3cvp20CVPixelBufferFactoryC2EPKcjjjjjjN3isp9IspOutputE,
                            __ZN3aci3cvp20CVPixelBufferWrapper13classTypeInfoEv,
                            __ZN3aci3cvp6Device11setPropertyEPK10__CFStringPKv,
                            __ZN3aci3cvp6Device11stopChannelEj,
                            __ZN3aci3cvp6Device12copyPropertyEPK10__CFStringPv,
                            __ZN3aci3cvp6Device12startChannelEj,
                            __ZN3aci3cvp6Device16getConfigurationEPPK14__CFDictionary,
                            __ZN3aci3cvp6Device22registerBufferCallbackEPFbPvP10__CVBufferyES2_jj,
                            __ZN3aci3cvp6DeviceC1EPKv, __ZN3aci3cvp6DeviceC2EPKv,
                            __ZN3aci3cvp6DeviceD1Ev, __ZN3aci3cvp6DeviceD2Ev,
                            __ZN3aci3cvp6Output10deactivateEv,
                            __ZN3aci3cvp6Output13classTypeInfoEv,
                            __ZN3aci3cvp6Output15handleFrameDoneEyy,
                            __ZN3aci3cvp6Output16getConfigurationEv,
                            __ZN3aci3cvp6Output17getBufferPoolInfoEPN3isp23AllocatedBufferPoolInfoE,
                            __ZN3aci3cvp6Output18sendInitialBuffersEv,
                            __ZN3aci3cvp6Output8activateEv,
                            __ZN3aci3cvp6Output9FrameDoneEPviS2_S2_,
                            __ZN3aci3cvp6OutputC1EjPN3isp14BufferPoolInfoEPNS0_9InterfaceE,
                            __ZN3aci3cvp6OutputC2EjPN3isp14BufferPoolInfoEPNS0_9InterfaceE,
                            __ZN3aci3cvp7Channel10deactivateEv,
                            __ZN3aci3cvp7Channel13classTypeInfoEv,
                            __ZN3aci3cvp7Channel16getConfigurationEv,
                            __ZN3aci3cvp7Channel22registerBufferCallbackEPFbPvP10__CVBufferyES2_j,
                            __ZN3aci3cvp7Channel4stopEv,
                            __ZN3aci3cvp7Channel5startEv,
                            __ZN3aci3cvp7Channel7prepareEv,
                            __ZN3aci3cvp7Channel8activateEv,
                            __ZN3aci3cvp7Channel9unprepareEv,
                            __ZN3aci3cvp7ChannelC1EjPN3isp11ChannelInfoEPNS0_9InterfaceE,
                            __ZN3aci3cvp7ChannelC2EjPN3isp11ChannelInfoEPNS0_9InterfaceE,
                            __ZN3aci3cvp9Interface13classTypeInfoEv,
                            __ZN3cvp12CVPInterface10sendChStopEj,
                            __ZN3cvp12CVPInterface11clientCountEv,
                            __ZN3cvp12CVPInterface11sendBuffersEPhjj,
                            __ZN3cvp12CVPInterface11sendChStartEj,
                            __ZN3cvp12CVPInterface11sendCommandEPN3isp18sCIspCommandHeaderEm,
                            __ZN3cvp12CVPInterface11sendI2CReadEjjjjjPN3isp15sCIspCmdI2CReadE,
                            __ZN3cvp12CVPInterface11sendSuspendEv,
                            __ZN3cvp12CVPInterface12loadFirmwareEPKc,
                            __ZN3cvp12CVPInterface12sendI2CWriteEjjjjjj,
                            __ZN3cvp12CVPInterface13sendBuildInfoEPN3isp17sCIspCmdBuildInfoE,
                            __ZN3cvp12CVPInterface13sendConfigGetEPN3isp17sCIspCmdConfigGetE,
                            __ZN3cvp12CVPInterface14forgetFirmwareEv,
                            __ZN3cvp12CVPInterface15sendCommandDictEPK14__CFDictionaryPS3_,
                            __ZN3cvp12CVPInterface16isFirmwareLoadedEv,
                            __ZN3cvp12CVPInterface22Dict2Struct_ModuleInfoEPK14__CFDictionaryPN3isp10ModuleInfoE,
                            __ZN3cvp12CVPInterface22Dict2Struct_SensorInfoEPK14__CFDictionaryPN3isp10SensorInfoE,
                            __ZN3cvp12CVPInterface23Dict2Struct_ChannelInfoEPK14__CFDictionaryPN3isp11ChannelInfoE,
                            __ZN3cvp12CVPInterface24Dict2Struct_SensorConfigEPK14__CFDictionaryPN3isp12SensorConfigE,
                            __ZN3cvp12CVPInterface25CreateDictFrom_ModuleInfoEPN3isp10ModuleInfoE,
                            __ZN3cvp12CVPInterface25CreateDictFrom_SensorInfoEPN3isp10SensorInfoE,
                            __ZN3cvp12CVPInterface26CreateArrayFrom_ModuleInfoEPN3isp10ModuleInfoEm,
                            __ZN3cvp12CVPInterface26CreateArrayFrom_SensorInfoEPN3isp10SensorInfoEm,
                            __ZN3cvp12CVPInterface26CreateDictFrom_ChannelInfoEPN3isp11ChannelInfoE,
                            __ZN3cvp12CVPInterface26Dict2Struct_BufferPoolInfoEPK14__CFDictionaryPN3isp14BufferPoolInfoE,
                            __ZN3cvp12CVPInterface27CreateArrayFrom_ChannelInfoEPN3isp11ChannelInfoEm,
                            __ZN3cvp12CVPInterface27CreateDictFrom_SensorConfigEPN3isp12SensorConfigE,
                            __ZN3cvp12CVPInterface27Dict2Struct_sCIspCmdI2CReadEPK14__CFDictionaryPN3isp15sCIspCmdI2CReadE,
                            __ZN3cvp12CVPInterface28CreateArrayFrom_SensorConfigEPN3isp12SensorConfigEm,
                            __ZN3cvp12CVPInterface28Dict2Struct_sCIspCmdI2CWriteEPK14__CFDictionaryPN3isp16sCIspCmdI2CWriteE,
                            __ZN3cvp12CVPInterface29CreateDictFrom_BufferPoolInfoEPN3isp14BufferPoolInfoE,
                            __ZN3cvp12CVPInterface29Dict2Struct_sCIspCmdBuildInfoEPK14__CFDictionaryPN3isp17sCIspCmdBuildInfoE,
                            __ZN3cvp12CVPInterface29Dict2Struct_sCIspCmdConfigGetEPK14__CFDictionaryPN3isp17sCIspCmdConfigGetE,
                            __ZN3cvp12CVPInterface29Dict2Struct_sCIspCmdRpcEnableEPK14__CFDictionaryPN3isp17sCIspCmdRpcEnableE,
                            __ZN3cvp12CVPInterface30CreateArrayFrom_BufferPoolInfoEPN3isp14BufferPoolInfoEm,
                            __ZN3cvp12CVPInterface30CreateDictFrom_sCIspCmdI2CReadEPN3isp15sCIspCmdI2CReadE,
                            __ZN3cvp12CVPInterface30Dict2Struct_RasterBufferConfigEPK14__CFDictionaryPN3isp18RasterBufferConfigE,
                            __ZN3cvp12CVPInterface30Dict2Struct_sCIspCmdChAEEnableEPK14__CFDictionaryPN3isp18sCIspCmdChAEEnableE,
                            __ZN3cvp12CVPInterface31CreateArrayFrom_sCIspCmdI2CReadEPN3isp15sCIspCmdI2CReadEm,
                            __ZN3cvp12CVPInterface31CreateDictFrom_sCIspCmdI2CWriteEPN3isp16sCIspCmdI2CWriteE,
                            __ZN3cvp12CVPInterface31Dict2Struct_sCIspCmdChAWBEnableEPK14__CFDictionaryPN3isp19sCIspCmdChAWBEnableE,
                            __ZN3cvp12CVPInterface31Dict2Struct_sCIspCmdChDPCEnableEPK14__CFDictionaryPN3isp19sCIspCmdChDPCEnableE,
                            __ZN3cvp12CVPInterface32CreateArrayFrom_sCIspCmdI2CWriteEPN3isp16sCIspCmdI2CWriteEm,
                            __ZN3cvp12CVPInterface32CreateDictFrom_sCIspCmdBuildInfoEPN3isp17sCIspCmdBuildInfoE,
                            __ZN3cvp12CVPInterface32CreateDictFrom_sCIspCmdConfigGetEPN3isp17sCIspCmdConfigGetE,
                            __ZN3cvp12CVPInterface32CreateDictFrom_sCIspCmdRpcEnableEPN3isp17sCIspCmdRpcEnableE,
                            __ZN3cvp12CVPInterface32Dict2Struct_MetadataBufferConfigEPK14__CFDictionaryPN3isp20MetadataBufferConfigE,
                            __ZN3cvp12CVPInterface32Dict2Struct_sCIspCmdAEFpsSettingEPK14__CFDictionaryPN3isp20sCIspCmdAEFpsSettingE,
                            __ZN3cvp12CVPInterface32Dict2Struct_sCIspCmdOutputEnableEPK14__CFDictionaryPN3isp20sCIspCmdOutputEnableE,
                            __ZN3cvp12CVPInterface33CreateArrayFrom_sCIspCmdBuildInfoEPN3isp17sCIspCmdBuildInfoEm,
                            __ZN3cvp12CVPInterface33CreateArrayFrom_sCIspCmdConfigGetEPN3isp17sCIspCmdConfigGetEm,
                            __ZN3cvp12CVPInterface33CreateArrayFrom_sCIspCmdRpcEnableEPN3isp17sCIspCmdRpcEnableEm,
                            __ZN3cvp12CVPInterface33CreateDictFrom_RasterBufferConfigEPN3isp18RasterBufferConfigE,
                            __ZN3cvp12CVPInterface33CreateDictFrom_sCIspCmdChAEEnableEPN3isp18sCIspCmdChAEEnableE,
                            __ZN3cvp12CVPInterface33Dict2Struct_sCIspCmdChAEFpsUpdateEPK14__CFDictionaryPN3isp21sCIspCmdChAEFpsUpdateE,
                            __ZN3cvp12CVPInterface33Dict2Struct_sCIspCmdChAEStatusGetEPK14__CFDictionaryPN3isp21sCIspCmdChAEStatusGetE,
                            __ZN3cvp12CVPInterface33Dict2Struct_sCIspCmdChAETargetGetEPK14__CFDictionaryPN3isp21sCIspCmdChAETargetGetE,
                            __ZN3cvp12CVPInterface33Dict2Struct_sCIspCmdChAETargetSetEPK14__CFDictionaryPN3isp21sCIspCmdChAETargetSetE,
                            __ZN3cvp12CVPInterface34CreateArrayFrom_RasterBufferConfigEPN3isp18RasterBufferConfigEm,
                            __ZN3cvp12CVPInterface34CreateArrayFrom_sCIspCmdChAEEnableEPN3isp18sCIspCmdChAEEnableEm,
                            __ZN3cvp12CVPInterface34CreateDictFrom_sCIspCmdChAWBEnableEPN3isp19sCIspCmdChAWBEnableE,
                            __ZN3cvp12CVPInterface34CreateDictFrom_sCIspCmdChDPCEnableEPN3isp19sCIspCmdChDPCEnableE,
                            __ZN3cvp12CVPInterface34Dict2Struct_sCIspCmdChAEFpsSettingEPK14__CFDictionaryPN3isp22sCIspCmdChAEFpsSettingE,
                            __ZN3cvp12CVPInterface34Dict2Struct_sCIspCmdChAWBStatusGetEPK14__CFDictionaryPN3isp22sCIspCmdChAWBStatusGetE,
                            __ZN3cvp12CVPInterface34Dict2Struct_sCIspCmdChSensorNVMGetEPK14__CFDictionaryPN3isp22sCIspCmdChSensorNVMGetE,
                            __ZN3cvp12CVPInterface35CreateArrayFrom_sCIspCmdChAWBEnableEPN3isp19sCIspCmdChAWBEnableEm,
                            __ZN3cvp12CVPInterface35CreateArrayFrom_sCIspCmdChDPCEnableEPN3isp19sCIspCmdChDPCEnableEm,
                            __ZN3cvp12CVPInterface35CreateDictFrom_MetadataBufferConfigEPN3isp20MetadataBufferConfigE,
                            __ZN3cvp12CVPInterface35CreateDictFrom_sCIspCmdAEFpsSettingEPN3isp20sCIspCmdAEFpsSettingE,
                            __ZN3cvp12CVPInterface35CreateDictFrom_sCIspCmdOutputEnableEPN3isp20sCIspCmdOutputEnableE,
                            __ZN3cvp12CVPInterface35Dict2Struct_AllocatedBufferPoolInfoEPK14__CFDictionaryPN3isp23AllocatedBufferPoolInfoE,
                            __ZN3cvp12CVPInterface35Dict2Struct_sCIspCmdOutputConfigSetEPK14__CFDictionaryPN3isp23sCIspCmdOutputConfigSetE,
                            __ZN3cvp12CVPInterface36CreateArrayFrom_MetadataBufferConfigEPN3isp20MetadataBufferConfigEm,
                            __ZN3cvp12CVPInterface36CreateArrayFrom_sCIspCmdAEFpsSettingEPN3isp20sCIspCmdAEFpsSettingEm,
                            __ZN3cvp12CVPInterface36CreateArrayFrom_sCIspCmdOutputEnableEPN3isp20sCIspCmdOutputEnableEm,
                            __ZN3cvp12CVPInterface36CreateDictFrom_sCIspCmdChAEFpsUpdateEPN3isp21sCIspCmdChAEFpsUpdateE,
                            __ZN3cvp12CVPInterface36CreateDictFrom_sCIspCmdChAEStatusGetEPN3isp21sCIspCmdChAEStatusGetE,
                            __ZN3cvp12CVPInterface36CreateDictFrom_sCIspCmdChAETargetGetEPN3isp21sCIspCmdChAETargetGetE,
                            __ZN3cvp12CVPInterface36CreateDictFrom_sCIspCmdChAETargetSetEPN3isp21sCIspCmdChAETargetSetE,
                            __ZN3cvp12CVPInterface36Dict2Struct_sCIspCmdCameraConfigsGetEPK14__CFDictionaryPN3isp24sCIspCmdCameraConfigsGetE,
                            __ZN3cvp12CVPInterface37CreateArrayFrom_sCIspCmdChAEFpsUpdateEPN3isp21sCIspCmdChAEFpsUpdateEm,
                            __ZN3cvp12CVPInterface37CreateArrayFrom_sCIspCmdChAEStatusGetEPN3isp21sCIspCmdChAEStatusGetEm,
                            __ZN3cvp12CVPInterface37CreateArrayFrom_sCIspCmdChAETargetGetEPN3isp21sCIspCmdChAETargetGetEm,
                            __ZN3cvp12CVPInterface37CreateArrayFrom_sCIspCmdChAETargetSetEPN3isp21sCIspCmdChAETargetSetEm,
                            __ZN3cvp12CVPInterface37CreateDictFrom_sCIspCmdChAEFpsSettingEPN3isp22sCIspCmdChAEFpsSettingE,
                            __ZN3cvp12CVPInterface37CreateDictFrom_sCIspCmdChAWBStatusGetEPN3isp22sCIspCmdChAWBStatusGetE,
                            __ZN3cvp12CVPInterface37CreateDictFrom_sCIspCmdChSensorNVMGetEPN3isp22sCIspCmdChSensorNVMGetE,
                            __ZN3cvp12CVPInterface37Dict2Struct_sCIspCmdBufferPoolInfoGetEPK14__CFDictionaryPN3isp25sCIspCmdBufferPoolInfoGetE,
                            __ZN3cvp12CVPInterface37Dict2Struct_sCIspCmdBufferPoolInfoSetEPK14__CFDictionaryPN3isp25sCIspCmdBufferPoolInfoSetE,
                            __ZN3cvp12CVPInterface37Dict2Struct_sCIspCmdChAEManualControlEPK14__CFDictionaryPN3isp25sCIspCmdChAEManualControlE,
                            __ZN3cvp12CVPInterface38CreateArrayFrom_sCIspCmdChAEFpsSettingEPN3isp22sCIspCmdChAEFpsSettingEm,
                            __ZN3cvp12CVPInterface38CreateArrayFrom_sCIspCmdChAWBStatusGetEPN3isp22sCIspCmdChAWBStatusGetEm,
                            __ZN3cvp12CVPInterface38CreateArrayFrom_sCIspCmdChSensorNVMGetEPN3isp22sCIspCmdChSensorNVMGetEm,
                            __ZN3cvp12CVPInterface38CreateDictFrom_AllocatedBufferPoolInfoEPN3isp23AllocatedBufferPoolInfoE,
                            __ZN3cvp12CVPInterface38CreateDictFrom_sCIspCmdOutputConfigSetEPN3isp23sCIspCmdOutputConfigSetE,
                            __ZN3cvp12CVPInterface38Dict2Struct_sCIspCmdCameraConfigSelectEPK14__CFDictionaryPN3isp26sCIspCmdCameraConfigSelectE,
                            __ZN3cvp12CVPInterface39CreateArrayFrom_AllocatedBufferPoolInfoEPN3isp23AllocatedBufferPoolInfoEm,
                            __ZN3cvp12CVPInterface39CreateArrayFrom_sCIspCmdOutputConfigSetEPN3isp23sCIspCmdOutputConfigSetEm,
                            __ZN3cvp12CVPInterface39CreateDictFrom_sCIspCmdCameraConfigsGetEPN3isp24sCIspCmdCameraConfigsGetE,
                            __ZN3cvp12CVPInterface40CreateArrayFrom_sCIspCmdCameraConfigsGetEPN3isp24sCIspCmdCameraConfigsGetEm,
                            __ZN3cvp12CVPInterface40CreateDictFrom_sCIspCmdBufferPoolInfoGetEPN3isp25sCIspCmdBufferPoolInfoGetE,
                            __ZN3cvp12CVPInterface40CreateDictFrom_sCIspCmdBufferPoolInfoSetEPN3isp25sCIspCmdBufferPoolInfoSetE,
                            __ZN3cvp12CVPInterface40CreateDictFrom_sCIspCmdChAEManualControlEPN3isp25sCIspCmdChAEManualControlE,
                            __ZN3cvp12CVPInterface41CreateArrayFrom_sCIspCmdBufferPoolInfoGetEPN3isp25sCIspCmdBufferPoolInfoGetEm,
                            __ZN3cvp12CVPInterface41CreateArrayFrom_sCIspCmdBufferPoolInfoSetEPN3isp25sCIspCmdBufferPoolInfoSetEm,
                            __ZN3cvp12CVPInterface41CreateArrayFrom_sCIspCmdChAEManualControlEPN3isp25sCIspCmdChAEManualControlEm,
                            __ZN3cvp12CVPInterface41CreateDictFrom_sCIspCmdCameraConfigSelectEPN3isp26sCIspCmdCameraConfigSelectE,
                            __ZN3cvp12CVPInterface42CreateArrayFrom_sCIspCmdCameraConfigSelectEPN3isp26sCIspCmdCameraConfigSelectEm,
                            __ZN3cvp12CVPInterface42Dict2Struct_sCIspCmdChSensorTemperatureGetEPK14__CFDictionaryPN3isp30sCIspCmdChSensorTemperatureGetE,
                            __ZN3cvp12CVPInterface45CreateDictFrom_sCIspCmdChSensorTemperatureGetEPN3isp30sCIspCmdChSensorTemperatureGetE,
                            __ZN3cvp12CVPInterface46CreateArrayFrom_sCIspCmdChSensorTemperatureGetEPN3isp30sCIspCmdChSensorTemperatureGetEm,
                            __ZN3cvp12CVPInterface4testEv,
                            __ZN3cvp12CVPInterface7powerOnEv,
                            __ZN3cvp12CVPInterface8powerOffEv,
                            __ZN3cvp12CVPInterface8sendStopEv,
                            __ZN3cvp12CVPInterface9isPoweredEv,
                            __ZN3cvp12CVPInterface9sendStartEv,
                            __ZN3cvp12CVPInterfaceC1Eb,
                            __ZN3cvp12CVPInterfaceC2Eb,
                            __ZN3cvp12CVPInterfaceD1Ev,
                            __ZN3cvp12CVPInterfaceD2Ev,
                            __ZN3cvp17kSensorInfoKey_idE,
                            __ZN3cvp19kModuleInfoKey_yearE,
                            __ZN3cvp19kSensorInfoKey_snumE,
                            __ZN3cvp20kCommandHeaderKey_idE,
                            __ZN3cvp21kModuleInfoKey_serialE,
                            __ZN3cvp21kSensorInfoKey_serialE,
                            __ZN3cvp22kModuleInfoKey_lens_idE,
                            __ZN3cvp23kSensorInfoKey_nvm_sizeE,
                            __ZN3cvp23ksCIspCmdI2CReadKey_busE,
                            __ZN3cvp24kModuleInfoKey_availableE,
                            __ZN3cvp24kModuleInfoKey_work_weekE,
                            __ZN3cvp24kSensorInfoKey_availableE,
                            __ZN3cvp24kSensorInfoKey_first_pixE,
                            __ZN3cvp24ksCIspCmdI2CReadKey_dataE,
                            __ZN3cvp24ksCIspCmdI2CWriteKey_busE,
                            __ZN3cvp25kBufferPoolInfoKey_outputE,
                            __ZN3cvp25kModuleInfoKey_integratorE,
                            __ZN3cvp25kSensorConfigKey_max_gainE,
                            __ZN3cvp25ksCIspCmdI2CWriteKey_dataE,
                            __ZN3cvp26kModuleInfoKey_day_of_weekE,
                            __ZN3cvp26kSensorConfigKey_raw_widthE,
                            __ZN3cvp26ksCIspCmdBuildInfoKey_nameE,
                            __ZN3cvp27kChannelInfoKey_module_infoE,
                            __ZN3cvp27kChannelInfoKey_num_configsE,
                            __ZN3cvp27kChannelInfoKey_sensor_infoE,
                            __ZN3cvp27kSensorConfigKey_raw_heightE,
                            __ZN3cvp27kSensorInfoKey_camera_buildE,
                            __ZN3cvp27ksCIspCmdI2CReadKey_addressE,
                            __ZN3cvp27ksCIspCmdI2CReadKey_dataLenE,
                            __ZN3cvp28kBufferPoolInfoKey_alignmentE,
                            __ZN3cvp28kRasterBufferConfigKey_widthE,
                            __ZN3cvp28kSensorConfigKey_black_levelE,
                            __ZN3cvp28kSensorConfigKey_pixel_clockE,
                            __ZN3cvp28ksCIspCmdI2CWriteKey_addressE,
                            __ZN3cvp28ksCIspCmdI2CWriteKey_dataLenE,
                            __ZN3cvp28ksCIspCmdRpcEnableKey_enableE,
                            __ZN3cvp29kMetadataBufferConfigKey_sizeE,
                            __ZN3cvp29kRasterBufferConfigKey_formatE,
                            __ZN3cvp29kRasterBufferConfigKey_heightE,
                            __ZN3cvp29kRasterBufferConfigKey_strideE,
                            __ZN3cvp29ksCIspCmdBuildInfoKey_releaseE,
                            __ZN3cvp29ksCIspCmdChAEEnableKey_enableE,
                            __ZN3cvp30kAllocatedBufferPoolInfoKey_idE,
                            __ZN3cvp30kBufferPoolInfoKey_buffer_typeE,
                            __ZN3cvp30kCommandHeaderKey_channel_maskE,
                            __ZN3cvp30kSensorConfigKey_output_formatE,
                            __ZN3cvp30kSensorConfigKey_readout_widthE,
                            __ZN3cvp30ksCIspCmdBuildInfoKey_linkDateE,
                            __ZN3cvp30ksCIspCmdChAWBEnableKey_enableE,
                            __ZN3cvp30ksCIspCmdI2CReadKey_subaddressE,
                            __ZN3cvp31kSensorConfigKey_max_frame_rateE,
                            __ZN3cvp31kSensorConfigKey_min_frame_rateE,
                            __ZN3cvp31kSensorConfigKey_readout_heightE,
                            __ZN3cvp31ksCIspCmdAEFpsSettingKey_maxFpsE,
                            __ZN3cvp31ksCIspCmdAEFpsSettingKey_minFpsE,
                            __ZN3cvp31ksCIspCmdChDPCEnableKey_enabledE,
                            __ZN3cvp31ksCIspCmdChSensorNVMGetKey_sizeE,
                            __ZN3cvp31ksCIspCmdI2CWriteKey_subaddressE,
                            __ZN3cvp31ksCIspCmdOutputEnableKey_enableE,
                            __ZN3cvp32kSensorInfoKey_num_test_patternsE,
                            __ZN3cvp32ksCIspCmdChAEFpsSettingKey_chIdxE,
                            __ZN3cvp32ksCIspCmdChAEFpsUpdateKey_chCtrlE,
                            __ZN3cvp32ksCIspCmdChAETargetGetKey_targetE,
                            __ZN3cvp32ksCIspCmdChAETargetSetKey_targetE,
                            __ZN3cvp33kSensorConfigKey_binning_verticalE,
                            __ZN3cvp33ksCIspCmdChAEFpsUpdateKey_numOfChE,
                            __ZN3cvp33ksCIspCmdChAEManualControlKey_tagE,
                            __ZN3cvp33ksCIspCmdChAWBStatusGetKey_stableE,
                            __ZN3cvp33ksCIspCmdChSensorNVMGetKey_offsetE,
                            __ZN3cvp33ksCIspCmdI2CReadKey_subaddressLenE,
                            __ZN3cvp33ksCIspCmdOutputConfigSetKey_widthE,
                            __ZN3cvp34kAllocatedBufferPoolInfoKey_outputE,
                            __ZN3cvp34ksCIspCmdChAEFpsSettingKey_settingE,
                            __ZN3cvp34ksCIspCmdChAEStatusGetKey_aeStatusE,
                            __ZN3cvp34ksCIspCmdChSensorNVMGetKey_nvmDataE,
                            __ZN3cvp34ksCIspCmdConfigGetKey_channel_infoE,
                            __ZN3cvp34ksCIspCmdConfigGetKey_num_channelsE,
                            __ZN3cvp34ksCIspCmdI2CWriteKey_subaddressLenE,
                            __ZN3cvp34ksCIspCmdOutputConfigSetKey_formatE,
                            __ZN3cvp34ksCIspCmdOutputConfigSetKey_heightE,
                            __ZN3cvp35kBufferPoolInfoKey_min_buffer_countE,
                            __ZN3cvp35kSensorConfigKey_binning_horizontalE,
                            __ZN3cvp35ksCIspCmdBufferPoolInfoSetKey_countE,
                            __ZN3cvp35ksCIspCmdBuildInfoKey_toolchainNameE,
                            __ZN3cvp36ksCIspCmdCameraConfigSelectKey_indexE,
                            __ZN3cvp36ksCIspCmdCameraConfigsGetKey_configsE,
                            __ZN3cvp37kSensorConfigKey_max_integration_timeE,
                            __ZN3cvp37kSensorConfigKey_min_integration_timeE,
                            __ZN3cvp38ksCIspCmdBuildInfoKey_toolchainVersionE,
                            __ZN3cvp39kAllocatedBufferPoolInfoKey_num_buffersE,
                            __ZN3cvp39kBufferPoolInfoKey_raster_buffer_configE,
                            __ZN3cvp39ksCIspCmdBufferPoolInfoGetKey_pool_infoE,
                            __ZN3cvp39ksCIspCmdBufferPoolInfoSetKey_pool_infoE,
                            __ZN3cvp39ksCIspCmdChAEManualControlKey_frameRateE,
                            __ZN3cvp40kSensorConfigKey_supported_binning_modesE,
                            __ZN3cvp40ksCIspCmdCameraConfigsGetKey_num_configsE,
                            __ZN3cvp41kBufferPoolInfoKey_metadata_buffer_configE,
                            __ZN3cvp41ksCIspCmdConfigGetKey_timestamp_frequencyE,
                            __ZN3cvp44ksCIspCmdChAEManualControlKey_ispDigitalGainE,
                            __ZN3cvp45ksCIspCmdChAEManualControlKey_exposoureTimeUsE,
                            __ZN3cvp46ksCIspCmdChAEManualControlKey_sensorAnalogGainE,
                            __ZN3cvp46ksCIspCmdChSensorTemperatureGetKey_temperatureE,
                            __ZN3cvp47ksCIspCmdChAEManualControlKey_sensorDigitalGainE,
                            __ZN3cvp49ksCIspCmdAEFpsSettingKey_maxExpTimeInMicrosecondsE,
                            __ZNK3aci3cvp20CVPixelBufferFactory11castToClassEPKNS_8TypeInfoE,
                            __ZNK3aci3cvp20CVPixelBufferFactory9classNameEv,
                            __ZNK3aci3cvp20CVPixelBufferWrapper11castToClassEPKNS_8TypeInfoE,
                            __ZNK3aci3cvp20CVPixelBufferWrapper9classNameEv,
                            __ZNK3aci3cvp6Output11castToClassEPKNS_8TypeInfoE,
                            __ZNK3aci3cvp6Output9classNameEv,
                            __ZNK3aci3cvp7Channel11castToClassEPKNS_8TypeInfoE,
                            __ZNK3aci3cvp7Channel9classNameEv,
                            __ZNK3aci3cvp9Interface11castToClassEPKNS_8TypeInfoE,
                            __ZNK3aci3cvp9Interface9classNameEv,
                            __ZTVN3aci3cvp20CVPixelBufferFactoryE,
                            __ZTVN3aci3cvp20CVPixelBufferWrapperE,
                            __ZTVN3aci3cvp6OutputE, __ZTVN3aci3cvp7ChannelE,
                            __ZTVN3aci3cvp9InterfaceE,
                            __ZThn16_N3aci3cvp6Output10deactivateEv,
                            __ZThn16_N3aci3cvp6Output8activateEv,
                            __ZThn16_N3aci3cvp7Channel10deactivateEv,
                            __ZThn16_N3aci3cvp7Channel4stopEv,
                            __ZThn16_N3aci3cvp7Channel5startEv,
                            __ZThn16_N3aci3cvp7Channel7prepareEv,
                            __ZThn16_N3aci3cvp7Channel8activateEv,
                            __ZThn16_N3aci3cvp7Channel9unprepareEv,
                            __ZThn16_NK3aci3cvp6Output11castToClassEPKNS_8TypeInfoE,
                            __ZThn16_NK3aci3cvp6Output9classNameEv,
                            __ZThn16_NK3aci3cvp7Channel11castToClassEPKNS_8TypeInfoE,
                            __ZThn16_NK3aci3cvp7Channel9classNameEv,
                            _kACICVPInterfaceProperty_DeviceConfiguration,
                            _kACICVPInterface_Alignment,
                            _kACICVPInterface_ChannelId,
                            _kACICVPInterface_ChannelNumber,
                            _kACICVPInterface_Channels, _kACICVPInterface_Format,
                            _kACICVPInterface_Height, _kACICVPInterface_Key,
                            _kACICVPInterface_OutputId,
                            _kACICVPInterface_OutputNumber,
                            _kACICVPInterface_Outputs, _kACICVPInterface_Size,
                            _kACICVPInterface_Stride, _kACICVPInterface_Width ]
    weak-def-symbols:     [ __ZGVZN3aci3cvp8CFObjectINS0_6DeviceEE12createTypeIDEvE12runtimeClass,
                            __ZN3aci3cvp6Device14kDefaultFWPathE,
                            __ZN3aci3cvp8CFObjectINS0_6DeviceEE13copyDebugDescEPKv,
                            __ZN3aci3cvp8CFObjectINS0_6DeviceEE4hashEPKv,
                            __ZN3aci3cvp8CFObjectINS0_6DeviceEE5equalEPKvS5_,
                            __ZN3aci3cvp8CFObjectINS0_6DeviceEE7_typeIdE,
                            __ZN3aci3cvp8CFObjectINS0_6DeviceEE8finalizeEPKv,
                            __ZZN3aci3cvp8CFObjectINS0_6DeviceEE12createTypeIDEvE12runtimeClass ]
...
