--- !tapi-tbd-v3
archs:                 [ armv7, armv7s, arm64, arm64e ]
platform:              ios
flags:                 [ flat_namespace ]
install-name:          /System/Library/PrivateFrameworks/ACICamera.framework/ACICamera
current-version:       1
compatibility-version: 1
objc-constraint:       retain_release
exports:
  - archs:                [ armv7, armv7s, arm64, arm64e ]
    symbols:              [ _ACICameraVersionNumber, _ACICameraVersionString,
                            __ZN3aci20CVBufferDummyFactory11acquireDataEP10__CVBuffer,
                            __ZN3aci20CVBufferDummyFactory13classTypeInfoEv,
                            __ZN3aci20CVBufferDummyFactory8freeDataEPNS_4DataE,
                            __ZN3aci20CVBufferDummyFactory9allocDataEv,
                            __ZN3aci6camera10XPCService13classTypeInfoEv,
                            __ZN3aci6camera10XPCService9onNewDataEPNS_4DataEPNS_6StringE,
                            __ZN3aci6camera11XPCProvider13classTypeInfoEv,
                            __ZN3aci6camera11XPCProvider13createServiceEPNS_6StreamE,
                            __ZN3aci6camera11XPCProviderC1EPNS_8StreamerE,
                            __ZN3aci6camera11XPCProviderC2EPNS_8StreamerE,
                            __ZN3aci6camera16CVPSourceManager13classTypeInfoEv,
                            __ZN3aci6camera16CVPSourceManager13sourceByPropsEPNS_10DictionaryE,
                            __ZN3aci6camera16CVPSourceManager15discoverSourcesEv,
                            __ZN3aci6camera16CVPSourceManagerC1Ev,
                            __ZN3aci6camera16CVPSourceManagerC2Ev,
                            __ZN3aci6camera16ProviderListener13classTypeInfoEv,
                            __ZN3aci6camera16XPCSourceManager13classTypeInfoEv,
                            __ZN3aci6camera16XPCSourceManager13sourceByPropsEPNS_10DictionaryE,
                            __ZN3aci6camera16XPCSourceManager15discoverSourcesEv,
                            __ZN3aci6camera16XPCSourceManagerC1Ev,
                            __ZN3aci6camera16XPCSourceManagerC2Ev,
                            __ZN3aci6camera18XPCAccountReceiver12contentReadyEPvyy,
                            __ZN3aci6camera18XPCAccountReceiver13classTypeInfoEv,
                            __ZN3aci6camera18XPCAccountReceiver7cleanupEv,
                            __ZN3aci6camera18XPCAccountReceiverC1EP21NSXPCListenerEndpoint,
                            __ZN3aci6camera18XPCAccountReceiverC2EP21NSXPCListenerEndpoint,
                            __ZN3aci6camera6Device13classTypeInfoEv,
                            __ZN3aci6camera6DeviceC1EPKc,
                            __ZN3aci6camera6DeviceC2EPKc,
                            __ZN3aci6camera7Manager10initializeEv,
                            __ZN3aci6camera7Manager12deinitializeEv,
                            __ZN3aci6camera7Manager13classTypeInfoEv,
                            __ZN3aci6camera7Manager16constructStreamsEv,
                            __ZN3aci6camera7Manager19availableCameraKeysEv,
                            __ZN3aci6camera7Manager33constructStreamBySourcePropertiesEPNS_10DictionaryE,
                            __ZN3aci6camera7ManagerC1EPKcb,
                            __ZN3aci6camera7ManagerC2EPKcb,
                            __ZN3aci6camera9CVPSource11OnNewBufferEPvP10__CVBuffery,
                            __ZN3aci6camera9CVPSource11onNewBufferEP10__CVBuffery,
                            __ZN3aci6camera9CVPSource13classTypeInfoEv,
                            __ZN3aci6camera9CVPSource4stopEv,
                            __ZN3aci6camera9CVPSource5startEv,
                            __ZN3aci6camera9CVPSourceC1EP14__ACICVPDevicePNS_10DictionaryE,
                            __ZN3aci6camera9CVPSourceC2EP14__ACICVPDevicePNS_10DictionaryE,
                            __ZN3aci6camera9XPCSource13classTypeInfoEv,
                            __ZN3aci6camera9XPCSource13setConnectionEP15NSXPCConnection,
                            __ZN3aci6camera9XPCSource16handleNewContentEP12NSDictionary,
                            __ZN3aci6camera9XPCSource4stopEv,
                            __ZN3aci6camera9XPCSource5startEv,
                            __ZN3aci6camera9XPCSourceC1EP15NSXPCConnectionPNS_10DictionaryE,
                            __ZN3aci6camera9XPCSourceC2EP15NSXPCConnectionPNS_10DictionaryE,
                            __ZNK3aci20CVBufferDummyFactory11castToClassEPKNS_8TypeInfoE,
                            __ZNK3aci20CVBufferDummyFactory9classNameEv,
                            __ZNK3aci6camera10XPCService11castToClassEPKNS_8TypeInfoE,
                            __ZNK3aci6camera10XPCService9classNameEv,
                            __ZNK3aci6camera11XPCProvider11castToClassEPKNS_8TypeInfoE,
                            __ZNK3aci6camera11XPCProvider9classNameEv,
                            __ZNK3aci6camera16CVPSourceManager11castToClassEPKNS_8TypeInfoE,
                            __ZNK3aci6camera16CVPSourceManager9classNameEv,
                            __ZNK3aci6camera16ProviderListener11castToClassEPKNS_8TypeInfoE,
                            __ZNK3aci6camera16ProviderListener9classNameEv,
                            __ZNK3aci6camera16XPCSourceManager11castToClassEPKNS_8TypeInfoE,
                            __ZNK3aci6camera16XPCSourceManager9classNameEv,
                            __ZNK3aci6camera18XPCAccountReceiver11castToClassEPKNS_8TypeInfoE,
                            __ZNK3aci6camera18XPCAccountReceiver9classNameEv,
                            __ZNK3aci6camera6Device11castToClassEPKNS_8TypeInfoE,
                            __ZNK3aci6camera6Device9classNameEv,
                            __ZNK3aci6camera7Manager11castToClassEPKNS_8TypeInfoE,
                            __ZNK3aci6camera7Manager9classNameEv,
                            __ZNK3aci6camera9CVPSource11castToClassEPKNS_8TypeInfoE,
                            __ZNK3aci6camera9CVPSource9classNameEv,
                            __ZNK3aci6camera9XPCSource11castToClassEPKNS_8TypeInfoE,
                            __ZNK3aci6camera9XPCSource9classNameEv,
                            __ZTVN3aci20CVBufferDummyFactoryE,
                            __ZTVN3aci6camera10XPCServiceE,
                            __ZTVN3aci6camera11XPCProviderE,
                            __ZTVN3aci6camera16CVPSourceManagerE,
                            __ZTVN3aci6camera16ProviderListenerE,
                            __ZTVN3aci6camera16XPCSourceManagerE,
                            __ZTVN3aci6camera18XPCAccountReceiverE,
                            __ZTVN3aci6camera6DeviceE,
                            __ZTVN3aci6camera7ManagerE,
                            __ZTVN3aci6camera9CVPSourceE,
                            __ZTVN3aci6camera9XPCSourceE,
                            __ZThn120_N3aci6camera10XPCService9onNewDataEPNS_4DataEPNS_6StringE,
                            __ZThn120_N3aci6camera9CVPSource4stopEv,
                            __ZThn120_N3aci6camera9CVPSource5startEv,
                            __ZThn120_N3aci6camera9XPCSource4stopEv,
                            __ZThn120_N3aci6camera9XPCSource5startEv,
                            __ZThn120_NK3aci6camera10XPCService11castToClassEPKNS_8TypeInfoE,
                            __ZThn120_NK3aci6camera10XPCService9classNameEv,
                            __ZThn120_NK3aci6camera9CVPSource11castToClassEPKNS_8TypeInfoE,
                            __ZThn120_NK3aci6camera9CVPSource9classNameEv,
                            __ZThn120_NK3aci6camera9XPCSource11castToClassEPKNS_8TypeInfoE,
                            __ZThn120_NK3aci6camera9XPCSource9classNameEv,
                            __ZThn16_N3aci6camera18XPCAccountReceiver12contentReadyEPvyy,
                            __ZThn16_N3aci6camera18XPCAccountReceiver7cleanupEv,
                            __ZThn16_NK3aci6camera10XPCService11castToClassEPKNS_8TypeInfoE,
                            __ZThn16_NK3aci6camera10XPCService9classNameEv,
                            __ZThn16_NK3aci6camera11XPCProvider11castToClassEPKNS_8TypeInfoE,
                            __ZThn16_NK3aci6camera11XPCProvider9classNameEv,
                            __ZThn16_NK3aci6camera16ProviderListener11castToClassEPKNS_8TypeInfoE,
                            __ZThn16_NK3aci6camera16ProviderListener9classNameEv,
                            __ZThn16_NK3aci6camera18XPCAccountReceiver11castToClassEPKNS_8TypeInfoE,
                            __ZThn16_NK3aci6camera18XPCAccountReceiver9classNameEv,
                            __ZThn16_NK3aci6camera7Manager11castToClassEPKNS_8TypeInfoE,
                            __ZThn16_NK3aci6camera7Manager9classNameEv,
                            __ZThn16_NK3aci6camera9CVPSource11castToClassEPKNS_8TypeInfoE,
                            __ZThn16_NK3aci6camera9CVPSource9classNameEv,
                            __ZThn16_NK3aci6camera9XPCSource11castToClassEPKNS_8TypeInfoE,
                            __ZThn16_NK3aci6camera9XPCSource9classNameEv ]
    objc-classes:         [ ACICameraManager, ACICameraProvider, ACIXPCAccount,
                            ACIXPCAccountReceiver, ACIXPCController,
                            ACIXPCProvider, ACIXPCSourceManager ]
    objc-ivars:           [ ACICameraManager._cameraManager,
                            ACICameraProvider._delegate,
                            ACICameraProvider._listeners,
                            ACICameraProvider._state, ACICameraProvider._stream,
                            ACICameraProvider.isStarted,
                            ACIXPCAccount._clientName, ACIXPCAccount._connection,
                            ACIXPCAccount._delegate, ACIXPCAccount._subscribers,
                            ACIXPCAccountReceiver._connection,
                            ACIXPCAccountReceiver._endpoint,
                            ACIXPCAccountReceiver._receiverProxy,
                            ACIXPCController._connection,
                            ACIXPCController._delegate,
                            ACIXPCController._listener, ACIXPCController._name,
                            ACIXPCController._queue, ACIXPCController._sender,
                            ACIXPCController._syncServiceManagerProxy,
                            ACIXPCController._uuid, ACIXPCProvider._accounts,
                            ACIXPCProvider._listener, ACIXPCProvider._provider,
                            ACIXPCProvider._servicesLock,
                            ACIXPCSourceManager._connection,
                            ACIXPCSourceManager._delegate,
                            ACIXPCSourceManager._serviceManagerProxy,
                            ACIXPCSourceManager._syncServiceManagerProxy ]
    weak-def-symbols:     [ __ZN3aci6camera6Device24kACICameraSourceType_CVPE,
                            __ZN3aci6camera6Device24kACICameraSourceType_XPCE ]
...
