--- !tapi-tbd-v3
archs:                 [ armv7, armv7s, arm64, arm64e ]
platform:              ios
flags:                 [ flat_namespace ]
install-name:          /System/Library/PrivateFrameworks/CoreAudioOrchestration.framework/CoreAudioOrchestration
current-version:       1
compatibility-version: 1
objc-constraint:       retain_release
exports:
  - archs:                [ armv7, armv7s, arm64, arm64e ]
    symbols:              [ _CoreAudioOrchestrationVersionNumber,
                            _CoreAudioOrchestrationVersionString,
                            _EDTReadingErrorDomain, _GetCAOrchestrator,
                            _GetCoreAudioOrchestrator,
                            _InstallCallbackForOrchestratorIsolatedAudio,
                            _InstallCallbackForOrchestratorLapseHandling,
                            _StartOrchestratorIsolatedAudio,
                            _StartOrchestratorIsolatedAudioAtTime,
                            _StopOrchestratorIsolatedAudio,
                            _UninstallCallbackForOrchestratorIsolatedAudio,
                            __Z10StopIOProcjPFijPK14AudioTimeStampPK15AudioBufferListS1_PS2_S1_PvE,
                            __Z11LapseEventsv,
                            __Z11StartIOProcjPFijPK14AudioTimeStampPK15AudioBufferListS1_PS2_S1_PvE,
                            __Z12ADMContextIDv,
                            __Z12CreateIOProcjPPFijPK14AudioTimeStampPK15AudioBufferListS1_PS2_S1_PvEP14IOProcCallable,
                            __Z13DestroyIOProcjPFijPK14AudioTimeStampPK15AudioBufferListS1_PS2_S1_PvE,
                            __Z15GetEntryForPathPKcPU15__autoreleasingP7NSError,
                            __Z17StartIOProcAtTimejPFijPK14AudioTimeStampPK15AudioBufferListS1_PS2_S1_PvEy,
                            __Z25ExADUseCaseFormatsFromEDTPU38objcproto27EmbeddedDeviceTreeAudioInfo11objc_objectPU15__autoreleasingP7NSError,
                            __Z33CreateLapseHandlingEventListenersjP20LapseHandlerCallable,
                            __Z34DestroyLapseHandlingEventListenersj,
                            __Z34ExADUseCaseFormatForUseCaseFromEDTPU38objcproto27EmbeddedDeviceTreeAudioInfo11objc_objectjPU15__autoreleasingP7NSError,
                            __ZN11IOProcBrain10doClientIOE15IOProcArguments,
                            __ZN11IOProcBrain10doDSPInputE15IOProcArguments,
                            __ZN11IOProcBrain14configureADMIOERK18ADMIOConfiguration,
                            __ZN11IOProcBrain19installClientIOProcEPFiyyPvES0_,
                            __ZN11IOProcBrain21uninstallClientIOProcEv,
                            __ZN11IOProcBrain4doIOE15IOProcArguments,
                            __ZN11IOProcBrainC1Ev, __ZN11IOProcBrainC2Ev,
                            __ZN11IOProcBrainD1Ev, __ZN11IOProcBrainD2Ev,
                            __ZN14IOLapseHandler15setIOHasStartedEb,
                            __ZN14IOLapseHandlerC1EPFviPvES0_,
                            __ZN14IOLapseHandlerC2EPFviPvES0_,
                            __ZN14IOLapseHandlerD1Ev, __ZN14IOLapseHandlerD2Ev,
                            __ZN5ADMIO14configureADMIOERK18ADMIOConfiguration,
                            __ZN5ADMIO17ADMStreamsAndABLsC1Emm,
                            __ZN5ADMIO17ADMStreamsAndABLsC2Emm,
                            __ZN5ADMIO26translateABLsToProc_StreamEPK15AudioBufferListN2CA9TimeStampERKNSt3__16vectorImNS5_9allocatorImEEEERNS6_IN4AMCP11Proc_StreamENS7_ISD_EEEE,
                            __ZN5ADMIO26translateABLsToProc_StreamERK15IOProcArguments,
                            __ZN5ADMIO4doIOE15IOProcArguments,
                            __ZN5ADMIO9timeStampEPK14AudioTimeStamp,
                            __ZNK14IOLapseHandler11handleLapseEi,
                            __ZTI11IOProcBrain, __ZTI14IOLapseHandler, __ZTI5ADMIO,
                            __ZTS11IOProcBrain, __ZTS14IOLapseHandler, __ZTS5ADMIO,
                            __ZTV11IOProcBrain, __ZTV14IOLapseHandler, __ZTV5ADMIO,
                            __ZThn8_N11IOProcBrain14configureADMIOERK18ADMIOConfiguration,
                            __ZThn8_N5ADMIO14configureADMIOERK18ADMIOConfiguration ]
    objc-classes:         [ CoreAudioOrchestration_ADM_Loader, DSPController,
                            ExclaveAudioFormatBase,
                            IORegistryEmbeddedDeviceTreeAudioInfo,
                            NonARCCoreAudioOrchestrationDelegate,
                            OrchestratorClientIOLapseHandler,
                            OrchestratorClientIOProc,
                            _TtC22CoreAudioOrchestration10Stravinsky,
                            _TtC22CoreAudioOrchestration12NSXPCService,
                            _TtC22CoreAudioOrchestration18ExclaveAudioFormat,
                            _TtC22CoreAudioOrchestration29ClientSharedAudioNSXPCService,
                            _TtC22CoreAudioOrchestration29IsolatedCoreAudioClientServer,
                            _TtC22CoreAudioOrchestration30CoreAudioOrchestrationDelegate ]
    objc-ivars:           [ CoreAudioOrchestration_ADM_Loader._admLibrary,
                            CoreAudioOrchestration_ADM_Loader.logger,
                            DSPController.admCallbacks,
                            DSPController.admConfigurator,
                            DSPController.admFactory, DSPController.admLoader,
                            DSPController.dspIOProcessor,
                            ExclaveAudioFormatBase._channels,
                            ExclaveAudioFormatBase._framesPerIO,
                            ExclaveAudioFormatBase._sampleRate,
                            OrchestratorClientIOLapseHandler.mDeviceID,
                            OrchestratorClientIOLapseHandler.mLapseHandler,
                            OrchestratorClientIOProc.mDeviceID,
                            OrchestratorClientIOProc.mIOBrain,
                            OrchestratorClientIOProc.mIOProcID ]
...
